target datalayout = "e-m:e-p270:32:32-p271:32:32-p272:64:64-i64:64-i128:128-f80:128-n8:16:32:64-S128"
target triple = "x86_64-unknown-linux-gnu"

%struct.BlockCopyState = type { ptr, ptr, i64, i64, i64, i32, %struct.CoMutex, i64, i32, %struct.BlockReqList, %struct.anon.0, i8, ptr, ptr, ptr, %struct.RateLimit }
%struct.CoMutex = type { i32, ptr, %struct.anon, %struct.anon, i32, i32, ptr }
%struct.anon = type { ptr }
%struct.BlockReqList = type { ptr }
%struct.anon.0 = type { ptr }
%struct.RateLimit = type { %struct.QemuMutex, i64, i64, i64, i64, i64 }
%struct.QemuMutex = type { %union.pthread_mutex_t, i8 }
%union.pthread_mutex_t = type { %struct.__pthread_mutex_s }
%struct.__pthread_mutex_s = type { i32, i32, i32, i32, i32, i16, i16, %struct.__pthread_internal_list }
%struct.__pthread_internal_list = type { ptr, ptr }
%struct.CoQueue = type { %struct.anon.12 }
%struct.anon.12 = type { ptr, ptr }
%struct.QemuLockable = type { ptr, ptr, ptr }
%struct.BlockCopyCallState = type { ptr, i64, i64, i32, i64, i8, ptr, ptr, ptr, i8, %struct.QemuCoSleep, i8, %struct.anon.3, i8, i32 }
%struct.QemuCoSleep = type { ptr }
%struct.anon.3 = type { ptr, ptr }
%struct.GraphLockable = type {}
%struct.BlockCopyTask = type { %struct.AioTask, ptr, ptr, i32, %struct.BlockReq }
%struct.AioTask = type { ptr, ptr, i32 }
%struct.BlockReq = type { i64, i64, %struct.CoQueue, %struct.anon.13 }
%struct.anon.13 = type { ptr, ptr }

; Function Attrs: nounwind sspstrong uwtable
define internal void @qemu_lockable_unlock(ptr noundef %x) #0 {
entry:
  %x.addr = alloca ptr, align 8
  store ptr %x, ptr %x.addr, align 8
  %0 = load ptr, ptr %x.addr, align 8
  %unlock = getelementptr inbounds %struct.QemuLockable, ptr %0, i32 0, i32 2
  %1 = load ptr, ptr %unlock, align 8
  %2 = load ptr, ptr %x.addr, align 8
  %object = getelementptr inbounds %struct.QemuLockable, ptr %2, i32 0, i32 0
  %3 = load ptr, ptr %object, align 8
  call void %1(ptr noundef %3)
  ret void
}

; Function Attrs: nounwind sspstrong uwtable
define internal void @glib_autoptr_clear_QemuLockable(ptr noundef %_ptr) #0 {
entry:
  %_ptr.addr = alloca ptr, align 8
  store ptr %_ptr, ptr %_ptr.addr, align 8
  %0 = load ptr, ptr %_ptr.addr, align 8
  %tobool = icmp ne ptr %0, null
  br i1 %tobool, label %if.then, label %if.end

if.then:                                          ; preds = %entry
  %1 = load ptr, ptr %_ptr.addr, align 8
  call void @qemu_lockable_auto_unlock(ptr noundef %1)
  br label %if.end

if.end:                                           ; preds = %if.then, %entry
  ret void
}

; Function Attrs: nounwind sspstrong uwtable
define internal void @qemu_lockable_lock(ptr noundef %x) #0 {
entry:
  %x.addr = alloca ptr, align 8
  store ptr %x, ptr %x.addr, align 8
  %0 = load ptr, ptr %x.addr, align 8
  %lock = getelementptr inbounds %struct.QemuLockable, ptr %0, i32 0, i32 1
  %1 = load ptr, ptr %lock, align 8
  %2 = load ptr, ptr %x.addr, align 8
  %object = getelementptr inbounds %struct.QemuLockable, ptr %2, i32 0, i32 0
  %3 = load ptr, ptr %object, align 8
  call void %1(ptr noundef %3)
  ret void
}

; Function Attrs: nounwind sspstrong uwtable
define internal void @glib_autoptr_clear_GraphLockable(ptr noundef %_ptr) #0 {
entry:
  %_ptr.addr = alloca ptr, align 8
  store ptr %_ptr, ptr %_ptr.addr, align 8
  %0 = load ptr, ptr %_ptr.addr, align 8
  %tobool = icmp ne ptr %0, null
  br i1 %tobool, label %if.then, label %if.end

if.then:                                          ; preds = %entry
  %1 = load ptr, ptr %_ptr.addr, align 8
  call void @graph_lockable_auto_unlock(ptr noundef %1)
  br label %if.end

if.end:                                           ; preds = %if.then, %entry
  ret void
}

; Function Attrs: nounwind sspstrong uwtable
define internal void @qemu_lockable_auto_unlock(ptr noundef %x) #0 {
entry:
  %x.addr = alloca ptr, align 8
  store ptr %x, ptr %x.addr, align 8
  %0 = load ptr, ptr %x.addr, align 8
  %tobool = icmp ne ptr %0, null
  br i1 %tobool, label %if.then, label %if.end

if.then:                                          ; preds = %entry
  %1 = load ptr, ptr %x.addr, align 8
  call void @qemu_lockable_unlock(ptr noundef %1)
  br label %if.end

if.end:                                           ; preds = %if.then, %entry
  ret void
}

; Function Attrs: nounwind sspstrong uwtable
define internal void @glib_autoptr_cleanup_QemuLockable(ptr noundef %_ptr) #0 {
entry:
  %_ptr.addr = alloca ptr, align 8
  store ptr %_ptr, ptr %_ptr.addr, align 8
  %0 = load ptr, ptr %_ptr.addr, align 8
  %1 = load ptr, ptr %0, align 8
  call void @glib_autoptr_clear_QemuLockable(ptr noundef %1)
  ret void
}

; Function Attrs: nounwind sspstrong uwtable
define internal ptr @qemu_lockable_auto_lock(ptr noundef %x) #0 {
entry:
  %x.addr = alloca ptr, align 8
  store ptr %x, ptr %x.addr, align 8
  %0 = load ptr, ptr %x.addr, align 8
  call void @qemu_lockable_lock(ptr noundef %0)
  %1 = load ptr, ptr %x.addr, align 8
  ret ptr %1
}

; Function Attrs: nounwind sspstrong uwtable
define internal void @graph_lockable_auto_unlock(ptr noundef %x) #0 {
entry:
  %x.addr = alloca ptr, align 8
  store ptr %x, ptr %x.addr, align 8
  call void @bdrv_graph_co_rdunlock()
  ret void
}

; Function Attrs: nounwind sspstrong uwtable
define internal void @glib_autoptr_cleanup_GraphLockable(ptr noundef %_ptr) #0 {
entry:
  %_ptr.addr = alloca ptr, align 8
  store ptr %_ptr, ptr %_ptr.addr, align 8
  %0 = load ptr, ptr %_ptr.addr, align 8
  %1 = load ptr, ptr %0, align 8
  call void @glib_autoptr_clear_GraphLockable(ptr noundef %1)
  ret void
}

; Function Attrs: nounwind sspstrong uwtable
define internal ptr @graph_lockable_auto_lock(ptr noundef %x) #0 {
entry:
  %x.addr = alloca ptr, align 8
  store ptr %x, ptr %x.addr, align 8
  call void @bdrv_graph_co_rdlock()
  %0 = load ptr, ptr %x.addr, align 8
  ret ptr %0
}

; Function Attrs: nounwind sspstrong uwtable
define internal i32 @block_copy_task_entry(ptr noundef %task) #0 {
entry:
  %task.addr = alloca ptr, align 8
  %t = alloca ptr, align 8
  %__mptr = alloca ptr, align 8
  %tmp = alloca ptr, align 8
  %s = alloca ptr, align 8
  %error_is_read = alloca i8, align 1
  %method = alloca i32, align 4
  %ret = alloca i32, align 4
  %graph_lockable_auto26 = alloca ptr, align 8
  %.compoundliteral = alloca %struct.GraphLockable, align 1
  %qemu_lockable_auto27 = alloca ptr, align 8
  %.compoundliteral5 = alloca %struct.QemuLockable, align 8
  store ptr %task, ptr %task.addr, align 8
  %0 = load ptr, ptr %task.addr, align 8
  store ptr %0, ptr %__mptr, align 8
  %1 = load ptr, ptr %__mptr, align 8
  %add.ptr = getelementptr i8, ptr %1, i64 0
  store ptr %add.ptr, ptr %tmp, align 8
  %2 = load ptr, ptr %tmp, align 8
  store ptr %2, ptr %t, align 8
  %3 = load ptr, ptr %t, align 8
  %s1 = getelementptr inbounds %struct.BlockCopyTask, ptr %3, i32 0, i32 1
  %4 = load ptr, ptr %s1, align 8
  store ptr %4, ptr %s, align 8
  store i8 0, ptr %error_is_read, align 1
  %5 = load ptr, ptr %t, align 8
  %method2 = getelementptr inbounds %struct.BlockCopyTask, ptr %5, i32 0, i32 3
  %6 = load i32, ptr %method2, align 8
  store i32 %6, ptr %method, align 4
  %call = call ptr @graph_lockable_auto_lock(ptr noundef %.compoundliteral)
  store ptr %call, ptr %graph_lockable_auto26, align 8
  br label %for.cond

for.cond:                                         ; preds = %for.inc, %entry
  %7 = load ptr, ptr %graph_lockable_auto26, align 8
  %tobool = icmp ne ptr %7, null
  br i1 %tobool, label %for.body, label %for.cond.cleanup

for.cond.cleanup:                                 ; preds = %for.cond
  call void @glib_autoptr_cleanup_GraphLockable(ptr noundef %graph_lockable_auto26)
  br label %for.end

for.body:                                         ; preds = %for.cond
  %8 = load ptr, ptr %s, align 8
  %9 = load ptr, ptr %t, align 8
  %req = getelementptr inbounds %struct.BlockCopyTask, ptr %9, i32 0, i32 4
  %offset = getelementptr inbounds %struct.BlockReq, ptr %req, i32 0, i32 0
  %10 = load i64, ptr %offset, align 8
  %11 = load ptr, ptr %t, align 8
  %req3 = getelementptr inbounds %struct.BlockCopyTask, ptr %11, i32 0, i32 4
  %bytes = getelementptr inbounds %struct.BlockReq, ptr %req3, i32 0, i32 1
  %12 = load i64, ptr %bytes, align 8
  %call4 = call i32 @block_copy_do_copy(ptr noundef %8, i64 noundef %10, i64 noundef %12, ptr noundef %method, ptr noundef %error_is_read)
  store i32 %call4, ptr %ret, align 4
  br label %for.inc

for.inc:                                          ; preds = %for.body
  %13 = load ptr, ptr %graph_lockable_auto26, align 8
  call void @graph_lockable_auto_unlock(ptr noundef %13)
  store ptr null, ptr %graph_lockable_auto26, align 8
  br label %for.cond, !llvm.loop !9

for.end:                                          ; preds = %for.cond.cleanup
  %object = getelementptr inbounds %struct.QemuLockable, ptr %.compoundliteral5, i32 0, i32 0
  %14 = load ptr, ptr %s, align 8
  %lock = getelementptr inbounds %struct.BlockCopyState, ptr %14, i32 0, i32 6
  store ptr %lock, ptr %object, align 8
  %lock6 = getelementptr inbounds %struct.QemuLockable, ptr %.compoundliteral5, i32 0, i32 1
  store ptr @qemu_co_mutex_lock, ptr %lock6, align 8
  %unlock = getelementptr inbounds %struct.QemuLockable, ptr %.compoundliteral5, i32 0, i32 2
  store ptr @qemu_co_mutex_unlock, ptr %unlock, align 8
  %call7 = call ptr @qemu_lockable_auto_lock(ptr noundef %.compoundliteral5)
  store ptr %call7, ptr %qemu_lockable_auto27, align 8
  br label %for.cond8

for.cond8:                                        ; preds = %for.inc33, %for.end
  %15 = load ptr, ptr %qemu_lockable_auto27, align 8
  %tobool9 = icmp ne ptr %15, null
  br i1 %tobool9, label %for.body11, label %for.cond.cleanup10

for.cond.cleanup10:                               ; preds = %for.cond8
  call void @glib_autoptr_cleanup_QemuLockable(ptr noundef %qemu_lockable_auto27)
  br label %for.end34

for.body11:                                       ; preds = %for.cond8
  %16 = load ptr, ptr %s, align 8
  %method12 = getelementptr inbounds %struct.BlockCopyState, ptr %16, i32 0, i32 8
  %17 = load i32, ptr %method12, align 8
  %18 = load ptr, ptr %t, align 8
  %method13 = getelementptr inbounds %struct.BlockCopyTask, ptr %18, i32 0, i32 3
  %19 = load i32, ptr %method13, align 8
  %cmp = icmp eq i32 %17, %19
  br i1 %cmp, label %if.then, label %if.end

if.then:                                          ; preds = %for.body11
  %20 = load i32, ptr %method, align 4
  %21 = load ptr, ptr %s, align 8
  %method14 = getelementptr inbounds %struct.BlockCopyState, ptr %21, i32 0, i32 8
  store i32 %20, ptr %method14, align 8
  br label %if.end

if.end:                                           ; preds = %if.then, %for.body11
  %22 = load i32, ptr %ret, align 4
  %cmp15 = icmp slt i32 %22, 0
  br i1 %cmp15, label %if.then16, label %if.else

if.then16:                                        ; preds = %if.end
  %23 = load ptr, ptr %t, align 8
  %call_state = getelementptr inbounds %struct.BlockCopyTask, ptr %23, i32 0, i32 2
  %24 = load ptr, ptr %call_state, align 8
  %ret17 = getelementptr inbounds %struct.BlockCopyCallState, ptr %24, i32 0, i32 14
  %25 = load i32, ptr %ret17, align 4
  %tobool18 = icmp ne i32 %25, 0
  br i1 %tobool18, label %if.end25, label %if.then19

if.then19:                                        ; preds = %if.then16
  %26 = load i32, ptr %ret, align 4
  %27 = load ptr, ptr %t, align 8
  %call_state20 = getelementptr inbounds %struct.BlockCopyTask, ptr %27, i32 0, i32 2
  %28 = load ptr, ptr %call_state20, align 8
  %ret21 = getelementptr inbounds %struct.BlockCopyCallState, ptr %28, i32 0, i32 14
  store i32 %26, ptr %ret21, align 4
  %29 = load i8, ptr %error_is_read, align 1
  %tobool22 = trunc i8 %29 to i1
  %30 = load ptr, ptr %t, align 8
  %call_state23 = getelementptr inbounds %struct.BlockCopyTask, ptr %30, i32 0, i32 2
  %31 = load ptr, ptr %call_state23, align 8
  %error_is_read24 = getelementptr inbounds %struct.BlockCopyCallState, ptr %31, i32 0, i32 13
  %frombool = zext i1 %tobool22 to i8
  store i8 %frombool, ptr %error_is_read24, align 8
  br label %if.end25

if.end25:                                         ; preds = %if.then19, %if.then16
  br label %if.end32

if.else:                                          ; preds = %if.end
  %32 = load ptr, ptr %s, align 8
  %progress = getelementptr inbounds %struct.BlockCopyState, ptr %32, i32 0, i32 13
  %33 = load ptr, ptr %progress, align 8
  %tobool26 = icmp ne ptr %33, null
  br i1 %tobool26, label %if.then27, label %if.end31

if.then27:                                        ; preds = %if.else
  %34 = load ptr, ptr %s, align 8
  %progress28 = getelementptr inbounds %struct.BlockCopyState, ptr %34, i32 0, i32 13
  %35 = load ptr, ptr %progress28, align 8
  %36 = load ptr, ptr %t, align 8
  %req29 = getelementptr inbounds %struct.BlockCopyTask, ptr %36, i32 0, i32 4
  %bytes30 = getelementptr inbounds %struct.BlockReq, ptr %req29, i32 0, i32 1
  %37 = load i64, ptr %bytes30, align 8
  call void @progress_work_done(ptr noundef %35, i64 noundef %37)
  br label %if.end31

if.end31:                                         ; preds = %if.then27, %if.else
  br label %if.end32

if.end32:                                         ; preds = %if.end31, %if.end25
  br label %for.inc33

for.inc33:                                        ; preds = %if.end32
  %38 = load ptr, ptr %qemu_lockable_auto27, align 8
  call void @qemu_lockable_auto_unlock(ptr noundef %38)
  store ptr null, ptr %qemu_lockable_auto27, align 8
  br label %for.cond8, !llvm.loop !10

for.end34:                                        ; preds = %for.cond.cleanup10
  %39 = load ptr, ptr %s, align 8
  %mem = getelementptr inbounds %struct.BlockCopyState, ptr %39, i32 0, i32 14
  %40 = load ptr, ptr %mem, align 8
  %41 = load ptr, ptr %t, align 8
  %req35 = getelementptr inbounds %struct.BlockCopyTask, ptr %41, i32 0, i32 4
  %bytes36 = getelementptr inbounds %struct.BlockReq, ptr %req35, i32 0, i32 1
  %42 = load i64, ptr %bytes36, align 8
  call void @co_put_to_shres(ptr noundef %40, i64 noundef %42)
  %43 = load ptr, ptr %t, align 8
  %44 = load i32, ptr %ret, align 4
  call void @block_copy_task_end(ptr noundef %43, i32 noundef %44)
  %45 = load i32, ptr %ret, align 4
  ret i32 %45
}