; Function Attrs: nounwind sspstrong uwtable
define internal i32 @block_copy_task_entry(ptr noundef %task) #0 {
entry:
  %error_is_read = alloca i8, align 1
  %method = alloca i32, align 4
  %s1 = getelementptr inbounds nuw i8, ptr %task, i64 24
  %0 = load ptr, ptr %s1, align 8
  store i8 0, ptr %error_is_read, align 1
  %method2 = getelementptr inbounds nuw i8, ptr %task, i64 40
  %1 = load i32, ptr %method2, align 8
  store i32 %1, ptr %method, align 4
  tail call void @bdrv_graph_co_rdlock() #14
  %req = getelementptr inbounds nuw i8, ptr %task, i64 48
  %bytes = getelementptr inbounds nuw i8, ptr %task, i64 56
  %2 = load i64, ptr %req, align 8
  %3 = load i64, ptr %bytes, align 8
  %call4 = call i32 @block_copy_do_copy(ptr noundef %0, i64 noundef %2, i64 noundef %3, ptr noundef nonnull %method, ptr noundef nonnull %error_is_read)
  tail call void @bdrv_graph_co_rdunlock() #14
  %lock = getelementptr inbounds nuw i8, ptr %0, i64 48
  tail call void @qemu_co_mutex_lock(ptr noundef nonnull %lock) #14
  %method12 = getelementptr inbounds nuw i8, ptr %0, i64 104
  %cmp15 = icmp slt i32 %call4, 0
  %4 = load i32, ptr %method, align 4
  %progress = getelementptr inbounds nuw i8, ptr %0, i64 144
  %call_state = getelementptr inbounds nuw i8, ptr %task, i64 32
  %5 = load i8, ptr %error_is_read, align 1
  %frombool = and i8 %5, 1
  %6 = load i32, ptr %method12, align 8
  %7 = load i32, ptr %method2, align 8
  %cmp.us.us = icmp eq i32 %6, %7
  br i1 %cmp15, label %for.body11.us.us, label %for.body11.us25

for.body11.us.us:                                 ; preds = %entry
  br i1 %cmp.us.us, label %if.then.us.us, label %if.end.us.us

if.then.us.us:                                    ; preds = %for.body11.us.us
  store i32 %4, ptr %method12, align 8
  br label %if.end.us.us

if.end.us.us:                                     ; preds = %if.then.us.us, %for.body11.us.us
  %8 = load ptr, ptr %call_state, align 8
  %ret17.us.us = getelementptr inbounds nuw i8, ptr %8, i64 116
  %9 = load i32, ptr %ret17.us.us, align 4
  %tobool18.not.us.us = icmp eq i32 %9, 0
  br i1 %tobool18.not.us.us, label %if.then19.us.us, label %glib_autoptr_cleanup_QemuLockable.exit

if.then19.us.us:                                  ; preds = %if.end.us.us
  store i32 %call4, ptr %ret17.us.us, align 4
  %10 = load ptr, ptr %call_state, align 8
  %error_is_read24.us.us = getelementptr inbounds nuw i8, ptr %10, i64 112
  store i8 %frombool, ptr %error_is_read24.us.us, align 8
  br label %glib_autoptr_cleanup_QemuLockable.exit

for.body11.us25:                                  ; preds = %entry
  br i1 %cmp.us.us, label %if.then.us28, label %if.end.us29

if.then.us28:                                     ; preds = %for.body11.us25
  store i32 %4, ptr %method12, align 8
  br label %if.end.us29

if.end.us29:                                      ; preds = %if.then.us28, %for.body11.us25
  %11 = load ptr, ptr %progress, align 8
  %tobool26.not.us = icmp eq ptr %11, null
  br i1 %tobool26.not.us, label %glib_autoptr_cleanup_QemuLockable.exit, label %if.then27.us

if.then27.us:                                     ; preds = %if.end.us29
  %12 = load i64, ptr %bytes, align 8
  tail call void @progress_work_done(ptr noundef nonnull %11, i64 noundef %12) #14
  br label %glib_autoptr_cleanup_QemuLockable.exit

glib_autoptr_cleanup_QemuLockable.exit:           ; preds = %if.end.us29, %if.then27.us, %if.end.us.us, %if.then19.us.us
  tail call void @qemu_co_mutex_unlock(ptr noundef nonnull %lock) #14
  %mem = getelementptr inbounds nuw i8, ptr %0, i64 152
  %13 = load ptr, ptr %mem, align 8
  %14 = load i64, ptr %bytes, align 8
  tail call void @co_put_to_shres(ptr noundef %13, i64 noundef %14) #14
  tail call void @block_copy_task_end(ptr noundef nonnull %task, i32 noundef %call4)
  ret i32 %call4
}